target datalayout = "e-m:e-p270:32:32-p271:32:32-p272:64:64-i64:64-i128:128-f80:128-n8:16:32:64-S128"
target triple = "x86_64-pc-linux-gnu"

@hf_mikey = internal global [71 x i32] zeroinitializer, align 16

; Function Attrs: null_pointer_is_valid sspstrong uwtable
define internal i32 @dissect_payload_v(ptr noundef %0, ptr noundef %1, ptr noundef %2, ptr noundef %3) #0 {
  %5 = alloca i32, align 4
  %6 = alloca ptr, align 8
  %7 = alloca ptr, align 8
  %8 = alloca ptr, align 8
  %9 = alloca ptr, align 8
  %10 = alloca i32, align 4
  %11 = alloca i16, align 2
  %12 = alloca i8, align 1
  %13 = alloca i32, align 4
  store ptr %0, ptr %6, align 8
  store ptr %1, ptr %7, align 8
  store ptr %2, ptr %8, align 8
  store ptr %3, ptr %9, align 8
  call void @llvm.lifetime.start.p0(i64 4, ptr %10) #5
  store i32 0, ptr %10, align 4
  call void @llvm.lifetime.start.p0(i64 2, ptr %11) #5
  call void @llvm.lifetime.start.p0(i64 1, ptr %12) #5
  %14 = load ptr, ptr %7, align 8
  %15 = load i32, ptr %10, align 4
  %16 = add i32 %15, 1
  %17 = call zeroext i8 @tvb_get_uint8(ptr noundef %14, i32 noundef %16)
  store i8 %17, ptr %12, align 1
  %18 = load ptr, ptr %9, align 8
  %19 = load i32, ptr getelementptr ([71 x i32], ptr @hf_mikey, i64 0, i64 35), align 4
  %20 = load ptr, ptr %7, align 8
  %21 = call ptr @proto_tree_add_item(ptr noundef %18, i32 noundef %19, ptr noundef %20, i32 noundef 1, i32 noundef 1, i32 noundef 0)
  %22 = load i8, ptr %12, align 1
  %23 = zext i8 %22 to i32
  switch i32 %23, label %26 [
    i32 0, label %24
    i32 1, label %25
  ]

24:                                               ; preds = %4
  store i16 0, ptr %11, align 2
  br label %27

25:                                               ; preds = %4
  store i16 20, ptr %11, align 2
  br label %27

26:                                               ; preds = %4
  store i32 0, ptr %5, align 4
  store i32 1, ptr %13, align 4
  br label %37

27:                                               ; preds = %25, %24
  %28 = load ptr, ptr %9, align 8
  %29 = load i32, ptr getelementptr ([71 x i32], ptr @hf_mikey, i64 0, i64 36), align 16
  %30 = load ptr, ptr %7, align 8
  %31 = load i16, ptr %11, align 2
  %32 = zext i16 %31 to i32
  %33 = call ptr @proto_tree_add_item(ptr noundef %28, i32 noundef %29, ptr noundef %30, i32 noundef 2, i32 noundef %32, i32 noundef 0)
  %34 = load i16, ptr %11, align 2
  %35 = zext i16 %34 to i32
  %36 = add i32 2, %35
  store i32 %36, ptr %5, align 4
  store i32 1, ptr %13, align 4
  br label %37

37:                                               ; preds = %27, %26
  call void @llvm.lifetime.end.p0(i64 1, ptr %12) #5
  call void @llvm.lifetime.end.p0(i64 2, ptr %11) #5
  call void @llvm.lifetime.end.p0(i64 4, ptr %10) #5
  %38 = load i32, ptr %5, align 4
  ret i32 %38
}