; Function Attrs: null_pointer_is_valid sspstrong uwtable
define internal range(i32 0, 23) i32 @dissect_payload_v(ptr readnone captures(none) %0, ptr noundef %1, ptr readnone captures(none) %2, ptr noundef %3) #0 {
  %5 = tail call zeroext i8 @tvb_get_uint8(ptr noundef %1, i32 noundef 1)
  %6 = load i32, ptr getelementptr inbounds nuw (i8, ptr @hf_mikey, i64 140), align 4
  %7 = tail call ptr @proto_tree_add_item(ptr noundef %3, i32 noundef %6, ptr noundef %1, i32 noundef 1, i32 noundef 1, i32 noundef 0)
  switch i8 %5, label %13 [
    i8 0, label %9
    i8 1, label %8
  ]

8:                                                ; preds = %4
  br label %9

9:                                                ; preds = %4, %8
  %.09 = phi i32 [ 20, %8 ], [ 0, %4 ]
  %10 = load i32, ptr getelementptr inbounds nuw (i8, ptr @hf_mikey, i64 144), align 16
  %11 = tail call ptr @proto_tree_add_item(ptr noundef %3, i32 noundef %10, ptr noundef %1, i32 noundef 2, i32 noundef %.09, i32 noundef 0)
  %12 = or disjoint i32 %.09, 2
  br label %13

13:                                               ; preds = %4, %9
  %.0 = phi i32 [ %12, %9 ], [ 0, %4 ]
  ret i32 %.0
}